; Function Attrs: mustprogress nofree nounwind willreturn memory(argmem: read) uwtable
define internal i32 @ssl_session_cmp(ptr noundef readonly captures(none) %0, ptr noundef readonly captures(none) %1) #5 {
  %3 = getelementptr inbounds nuw i8, ptr %0, i64 4
  %4 = load i32, ptr %3, align 4, !tbaa !56
  %5 = getelementptr inbounds nuw i8, ptr %1, i64 4
  %6 = load i32, ptr %5, align 4, !tbaa !56
  %.not = icmp eq i32 %4, %6
  br i1 %.not, label %7, label %17

7:                                                ; preds = %2
  %8 = getelementptr inbounds nuw i8, ptr %0, i64 64
  %9 = load i32, ptr %8, align 8, !tbaa !52
  %10 = getelementptr inbounds nuw i8, ptr %1, i64 64
  %11 = load i32, ptr %10, align 8, !tbaa !52
  %.not8 = icmp eq i32 %9, %11
  br i1 %.not8, label %12, label %17

12:                                               ; preds = %7
  %13 = getelementptr inbounds nuw i8, ptr %0, i64 68
  %14 = getelementptr inbounds nuw i8, ptr %1, i64 68
  %15 = zext i32 %9 to i64
  %16 = tail call i32 @memcmp(ptr noundef nonnull %13, ptr noundef nonnull %14, i64 noundef %15) #22
  br label %17

17:                                               ; preds = %7, %2, %12
  %.0 = phi i32 [ %16, %12 ], [ 1, %2 ], [ 1, %7 ]
  ret i32 %.0
}